; Function Attrs: nounwind uwtable
define zeroext range(i8 0, 2) i8 @l_Array_anyMUnsafe_any___at_Lean_Meta_mkCustomEliminator___spec__7(ptr noundef %0, ptr noundef readonly captures(none) %1, i64 noundef %2, i64 noundef %3) local_unnamed_addr #1 {
  %.not27 = icmp eq i64 %2, %3
  br i1 %.not27, label %lean_dec.exit._crit_edge, label %.lr.ph

.lr.ph:                                           ; preds = %4
  %5 = getelementptr inbounds nuw i8, ptr %1, i64 24
  br label %8

6:                                                ; preds = %lean_dec.exit
  %7 = add i64 %.01528, 1
  %.not = icmp eq i64 %7, %3
  br i1 %.not, label %lean_dec.exit._crit_edge, label %8

8:                                                ; preds = %.lr.ph, %6
  %.01528 = phi i64 [ %2, %.lr.ph ], [ %7, %6 ]
  %9 = getelementptr inbounds nuw [0 x ptr], ptr %5, i64 0, i64 %.01528
  %10 = load ptr, ptr %9, align 8, !tbaa !9
  %11 = ptrtoint ptr %10 to i64
  %12 = and i64 %11, 1
  %.not.i20 = icmp eq i64 %12, 0
  br i1 %.not.i20, label %13, label %lean_array_uget.exit

13:                                               ; preds = %8
  %.val.i.i = load i32, ptr %10, align 4, !tbaa !4
  %14 = icmp sgt i32 %.val.i.i, 0
  br i1 %14, label %15, label %17, !prof !11

15:                                               ; preds = %13
  %16 = add nuw i32 %.val.i.i, 1
  store i32 %16, ptr %10, align 4, !tbaa !4
  br label %20

17:                                               ; preds = %13
  %.not.i.i = icmp eq i32 %.val.i.i, 0
  br i1 %.not.i.i, label %20, label %18

18:                                               ; preds = %17
  tail call void @lean_inc_ref_cold(ptr noundef nonnull %10) #5
  br label %20

lean_array_uget.exit:                             ; preds = %8
  %19 = tail call zeroext i8 @l_Lean_PersistentArray_anyMAux___at_Lean_Meta_mkCustomEliminator___spec__6(ptr noundef %0, ptr noundef %10)
  br label %lean_dec.exit

20:                                               ; preds = %15, %17, %18
  %21 = tail call zeroext i8 @l_Lean_PersistentArray_anyMAux___at_Lean_Meta_mkCustomEliminator___spec__6(ptr noundef %0, ptr noundef nonnull %10)
  %22 = load i32, ptr %10, align 4, !tbaa !4
  %23 = icmp sgt i32 %22, 1
  br i1 %23, label %24, label %26, !prof !11

24:                                               ; preds = %20
  %25 = add nsw i32 %22, -1
  store i32 %25, ptr %10, align 4, !tbaa !4
  br label %lean_dec.exit

26:                                               ; preds = %20
  %.not.i = icmp eq i32 %22, 0
  br i1 %.not.i, label %lean_dec.exit, label %27

27:                                               ; preds = %26
  tail call void @lean_dec_ref_cold(ptr noundef nonnull %10) #5
  br label %lean_dec.exit

lean_dec.exit:                                    ; preds = %27, %26, %24, %lean_array_uget.exit
  %28 = phi i8 [ %19, %lean_array_uget.exit ], [ %21, %24 ], [ %21, %26 ], [ %21, %27 ]
  %29 = icmp eq i8 %28, 0
  br i1 %29, label %6, label %lean_dec.exit._crit_edge

lean_dec.exit._crit_edge:                         ; preds = %6, %lean_dec.exit, %4
  %.2.ph = phi i8 [ 0, %4 ], [ 1, %lean_dec.exit ], [ 0, %6 ]
  ret i8 %.2.ph
}